; Function Attrs: nounwind sspstrong uwtable
define internal noundef i32 @parse_eu_cb(i64 noundef %0, i64 noundef %1) #0 {
  %3 = tail call i64 @rb_reg_nth_match(i32 noundef 1, i64 noundef %0) #13
  %4 = tail call i64 @rb_reg_nth_match(i32 noundef 2, i64 noundef %0) #13
  %5 = tail call i64 @rb_reg_nth_match(i32 noundef 3, i64 noundef %0) #13
  %6 = tail call i64 @rb_reg_nth_match(i32 noundef 4, i64 noundef %0) #13
  %7 = inttoptr i64 %4 to ptr
  %8 = load i64, ptr %7, align 8, !tbaa !13, !noalias !144
  %9 = and i64 %8, 8192
  %.not.i.i.i = icmp eq i64 %9, 0
  %10 = getelementptr inbounds nuw i8, ptr %7, i64 24
  br i1 %.not.i.i.i, label %RSTRING_PTR.exit.us.i, label %.split.i

RSTRING_PTR.exit.us.i:                            ; preds = %2, %14
  %indvars.iv11.i = phi i64 [ %indvars.iv.next12.i, %14 ], [ 0, %2 ]
  %11 = getelementptr inbounds nuw [12 x [4 x i8]], ptr @abbr_months, i64 0, i64 %indvars.iv11.i
  %12 = tail call i32 @rb_st_locale_insensitive_strncasecmp(ptr noundef nonnull %11, ptr noundef nonnull %10, i64 noundef 3) #12
  %13 = icmp eq i32 %12, 0
  br i1 %13, label %mon_num.exit, label %14

14:                                               ; preds = %RSTRING_PTR.exit.us.i
  %indvars.iv.next12.i = add nuw nsw i64 %indvars.iv11.i, 1
  %exitcond14.not.i = icmp eq i64 %indvars.iv.next12.i, 12
  br i1 %exitcond14.not.i, label %mon_num.exit, label %RSTRING_PTR.exit.us.i, !llvm.loop !112

.split.i:                                         ; preds = %2
  %.sroa.2.0.copyload.i.i = load ptr, ptr %10, align 8
  br label %RSTRING_PTR.exit.i

RSTRING_PTR.exit.i:                               ; preds = %18, %.split.i
  %indvars.iv.i = phi i64 [ 0, %.split.i ], [ %indvars.iv.next.i, %18 ]
  %15 = getelementptr inbounds nuw [12 x [4 x i8]], ptr @abbr_months, i64 0, i64 %indvars.iv.i
  %16 = tail call i32 @rb_st_locale_insensitive_strncasecmp(ptr noundef nonnull %15, ptr noundef %.sroa.2.0.copyload.i.i, i64 noundef 3) #12
  %17 = icmp eq i32 %16, 0
  br i1 %17, label %mon_num.exit, label %18

18:                                               ; preds = %RSTRING_PTR.exit.i
  %indvars.iv.next.i = add nuw nsw i64 %indvars.iv.i, 1
  %exitcond.not.i = icmp eq i64 %indvars.iv.next.i, 12
  br i1 %exitcond.not.i, label %mon_num.exit, label %RSTRING_PTR.exit.i, !llvm.loop !112

mon_num.exit:                                     ; preds = %RSTRING_PTR.exit.i, %18, %RSTRING_PTR.exit.us.i, %14
  %.us-phi.i = phi i64 [ %indvars.iv11.i, %RSTRING_PTR.exit.us.i ], [ 12, %14 ], [ %indvars.iv.i, %RSTRING_PTR.exit.i ], [ 12, %18 ]
  %19 = icmp eq i64 %5, 4
  br i1 %19, label %32, label %20

20:                                               ; preds = %mon_num.exit
  %21 = inttoptr i64 %5 to ptr
  %22 = load i64, ptr %21, align 8, !tbaa !13, !noalias !147
  %23 = and i64 %22, 8192
  %.not.i.i = icmp eq i64 %23, 0
  %24 = getelementptr inbounds nuw i8, ptr %21, i64 24
  br i1 %.not.i.i, label %RSTRING_PTR.exit, label %RSTRING_PTR.exit.thread

RSTRING_PTR.exit:                                 ; preds = %20
  %25 = load i8, ptr %24, align 1, !tbaa !20
  %26 = icmp eq i8 %25, 66
  br i1 %26, label %32, label %RSTRING_PTR.exit15

RSTRING_PTR.exit.thread:                          ; preds = %20
  %.sroa.2.0.copyload.i = load ptr, ptr %24, align 8
  %27 = load i8, ptr %.sroa.2.0.copyload.i, align 1, !tbaa !20
  %28 = icmp eq i8 %27, 66
  br i1 %28, label %32, label %RSTRING_PTR.exit15

RSTRING_PTR.exit15:                               ; preds = %RSTRING_PTR.exit.thread, %RSTRING_PTR.exit
  %29 = phi i8 [ %25, %RSTRING_PTR.exit ], [ %27, %RSTRING_PTR.exit.thread ]
  %30 = icmp eq i8 %29, 98
  %31 = zext i1 %30 to i32
  br label %32

32:                                               ; preds = %RSTRING_PTR.exit.thread, %RSTRING_PTR.exit, %RSTRING_PTR.exit15, %mon_num.exit
  %33 = phi i32 [ 0, %mon_num.exit ], [ 1, %RSTRING_PTR.exit ], [ %31, %RSTRING_PTR.exit15 ], [ 1, %RSTRING_PTR.exit.thread ]
  %34 = shl i64 %.us-phi.i, 32
  %sext = add i64 %34, 4294967296
  %35 = ashr exact i64 %sext, 31
  %36 = or disjoint i64 %35, 1
  tail call fastcc void @s3e(i64 noundef %1, i64 noundef %6, i64 noundef %36, i64 noundef %3, i32 noundef %33)
  ret i32 1
}